target datalayout = "e-m:e-p270:32:32-p271:32:32-p272:64:64-i64:64-i128:128-f80:128-n8:16:32:64-S128"
target triple = "x86_64-pc-linux-gnu"

%struct.NVGglyphPosition = type { ptr, float, float, float }

; Function Attrs: mustprogress nounwind uwtable
define hidden noundef float @_ZN7nanogui7TextBox24cursor_index_to_positionEifPK16NVGglyphPositioni(ptr noundef nonnull align 8 dereferenceable(440) %0, i32 noundef %1, float noundef %2, ptr noundef %3, i32 noundef %4) #5 align 2 {
  %6 = alloca ptr, align 8
  %7 = alloca i32, align 4
  %8 = alloca float, align 4
  %9 = alloca ptr, align 8
  %10 = alloca i32, align 4
  %11 = alloca float, align 4
  store ptr %0, ptr %6, align 8
  store i32 %1, ptr %7, align 4
  store float %2, ptr %8, align 4
  store ptr %3, ptr %9, align 8
  store i32 %4, ptr %10, align 4
  store float 0.000000e+00, ptr %11, align 4
  %12 = load i32, ptr %7, align 4
  %13 = load i32, ptr %10, align 4
  %14 = icmp eq i32 %12, %13
  br i1 %14, label %15, label %17

15:                                               ; preds = %5
  %16 = load float, ptr %8, align 4
  store float %16, ptr %11, align 4
  br label %24

17:                                               ; preds = %5
  %18 = load ptr, ptr %9, align 8
  %19 = load i32, ptr %7, align 4
  %20 = sext i32 %19 to i64
  %21 = getelementptr inbounds %struct.NVGglyphPosition, ptr %18, i64 %20
  %22 = getelementptr inbounds %struct.NVGglyphPosition, ptr %21, i32 0, i32 1
  %23 = load float, ptr %22, align 8
  store float %23, ptr %11, align 4
  br label %24

24:                                               ; preds = %17, %15
  %25 = load float, ptr %11, align 4
  ret float %25
}