; Function Attrs: mustprogress nofree norecurse nosync nounwind willreturn memory(argmem: read) uwtable
define hidden noundef float @_ZN7nanogui7TextBox24cursor_index_to_positionEifPK16NVGglyphPositioni(ptr nocapture noundef nonnull readnone align 8 dereferenceable(440) %0, i32 noundef %1, float noundef %2, ptr nocapture noundef readonly %3, i32 noundef %4) local_unnamed_addr #8 align 2 {
  %6 = icmp eq i32 %1, %4
  br i1 %6, label %11, label %7

7:                                                ; preds = %5
  %8 = sext i32 %1 to i64
  %9 = getelementptr inbounds %struct.NVGglyphPosition, ptr %3, i64 %8, i32 1
  %10 = load float, ptr %9, align 8
  br label %11

11:                                               ; preds = %5, %7
  %.0 = phi float [ %10, %7 ], [ %2, %5 ]
  ret float %.0
}